; Function Attrs: mustprogress nofree norecurse nosync nounwind willreturn memory(read, inaccessiblemem: none) uwtable
define hidden noundef zeroext i1 @_ZN11ModuleEntry17has_been_archivedEv(ptr noundef nonnull align 8 dereferenceable(80) %0) local_unnamed_addr #4 align 2 {
  %2 = load ptr, ptr @_ZL24_archive_modules_entries, align 8
  %3 = ptrtoint ptr %0 to i64
  %4 = trunc i64 %3 to i32
  %5 = lshr exact i32 %4, 3
  %6 = xor i32 %5, %4
  %7 = urem i32 %6, 557
  %8 = zext nneg i32 %7 to i64
  %9 = getelementptr inbounds ptr, ptr %2, i64 %8
  %10 = load ptr, ptr %9, align 8
  %.not11.i.i.i.i = icmp eq ptr %10, null
  br i1 %.not11.i.i.i.i, label %_ZNK21ResourceHashtableBaseI29FixedResourceHashtableStorageILj557EPK11ModuleEntryPS1_ES3_S4_LN6AnyObj15allocation_typeE2EL8MEMFLAGS9EXadL_Z14primitive_hashIS3_EjRKT_EEXadL_Z16primitive_equalsIS3_EbSC_SC_EEE8containsERKS3_.exit, label %.lr.ph.i.i.i.i

.lr.ph.i.i.i.i:                                   ; preds = %1, %18
  %11 = phi ptr [ %20, %18 ], [ %10, %1 ]
  %12 = load i32, ptr %11, align 8
  %13 = icmp eq i32 %12, %6
  br i1 %13, label %14, label %18

14:                                               ; preds = %.lr.ph.i.i.i.i
  %15 = getelementptr inbounds i8, ptr %11, i64 8
  %16 = load ptr, ptr %15, align 8
  %17 = icmp eq ptr %16, %0
  br i1 %17, label %_ZNK21ResourceHashtableBaseI29FixedResourceHashtableStorageILj557EPK11ModuleEntryPS1_ES3_S4_LN6AnyObj15allocation_typeE2EL8MEMFLAGS9EXadL_Z14primitive_hashIS3_EjRKT_EEXadL_Z16primitive_equalsIS3_EbSC_SC_EEE8containsERKS3_.exit, label %18

18:                                               ; preds = %14, %.lr.ph.i.i.i.i
  %19 = getelementptr inbounds i8, ptr %11, i64 24
  %20 = load ptr, ptr %19, align 8
  %.not.i.i.i.i = icmp eq ptr %20, null
  br i1 %.not.i.i.i.i, label %_ZNK21ResourceHashtableBaseI29FixedResourceHashtableStorageILj557EPK11ModuleEntryPS1_ES3_S4_LN6AnyObj15allocation_typeE2EL8MEMFLAGS9EXadL_Z14primitive_hashIS3_EjRKT_EEXadL_Z16primitive_equalsIS3_EbSC_SC_EEE8containsERKS3_.exit, label %.lr.ph.i.i.i.i, !llvm.loop !13

_ZNK21ResourceHashtableBaseI29FixedResourceHashtableStorageILj557EPK11ModuleEntryPS1_ES3_S4_LN6AnyObj15allocation_typeE2EL8MEMFLAGS9EXadL_Z14primitive_hashIS3_EjRKT_EEXadL_Z16primitive_equalsIS3_EbSC_SC_EEE8containsERKS3_.exit: ; preds = %14, %18, %1
  %not..not.i.i = phi i1 [ false, %1 ], [ true, %14 ], [ false, %18 ]
  ret i1 %not..not.i.i
}